target datalayout = "e-m:e-p270:32:32-p271:32:32-p272:64:64-i64:64-i128:128-f80:128-n8:16:32:64-S128"
target triple = "x86_64-pc-linux-gnu"

%struct.FunctionCallInfoBaseData = type { ptr, ptr, ptr, i32, i8, i16, [0 x %struct.NullableDatum] }
%struct.NullableDatum = type { i64, i8 }
%struct.pg_uuid_t = type { [16 x i8] }

@.str.1 = private unnamed_addr constant [7 x i8] c"uuid.c\00", align 1
@.str.2 = private unnamed_addr constant [39 x i8] c"invalid input syntax for type %s: \22%s\22\00", align 1
@.str.3 = private unnamed_addr constant [5 x i8] c"uuid\00", align 1
@__func__.string_to_uuid = private unnamed_addr constant [15 x i8] c"string_to_uuid\00", align 1

; Function Attrs: inlinehint nounwind uwtable
define internal i64 @PointerGetDatum(ptr noundef %0) #2 {
  %2 = alloca ptr, align 8
  store ptr %0, ptr %2, align 8
  %3 = load ptr, ptr %2, align 8
  %4 = ptrtoint ptr %3 to i64
  ret i64 %4
}

; Function Attrs: inlinehint nounwind uwtable
define internal ptr @DatumGetPointer(i64 noundef %0) #2 {
  %2 = alloca i64, align 8
  store i64 %0, ptr %2, align 8
  %3 = load i64, ptr %2, align 8
  %4 = inttoptr i64 %3 to ptr
  ret ptr %4
}

; Function Attrs: inlinehint nounwind uwtable
define internal i64 @UUIDPGetDatum(ptr noundef %0) #2 {
  %2 = alloca ptr, align 8
  store ptr %0, ptr %2, align 8
  %3 = load ptr, ptr %2, align 8
  %4 = call i64 @PointerGetDatum(ptr noundef %3)
  ret i64 %4
}

; Function Attrs: nounwind uwtable
define internal void @string_to_uuid(ptr noundef %0, ptr noundef %1, ptr noundef %2) #0 {
  %4 = alloca ptr, align 8
  %5 = alloca ptr, align 8
  %6 = alloca ptr, align 8
  %7 = alloca ptr, align 8
  %8 = alloca i8, align 1
  %9 = alloca i32, align 4
  %10 = alloca [3 x i8], align 1
  %11 = alloca i32, align 4
  %12 = alloca ptr, align 8
  store ptr %0, ptr %4, align 8
  store ptr %1, ptr %5, align 8
  store ptr %2, ptr %6, align 8
  call void @llvm.lifetime.start.p0(i64 8, ptr %7) #10
  %13 = load ptr, ptr %4, align 8
  store ptr %13, ptr %7, align 8
  call void @llvm.lifetime.start.p0(i64 1, ptr %8) #10
  store i8 0, ptr %8, align 1
  call void @llvm.lifetime.start.p0(i64 4, ptr %9) #10
  %14 = load ptr, ptr %7, align 8
  %15 = getelementptr inbounds i8, ptr %14, i64 0
  %16 = load i8, ptr %15, align 1
  %17 = sext i8 %16 to i32
  %18 = icmp eq i32 %17, 123
  br i1 %18, label %19, label %22

19:                                               ; preds = %3
  %20 = load ptr, ptr %7, align 8
  %21 = getelementptr inbounds nuw i8, ptr %20, i32 1
  store ptr %21, ptr %7, align 8
  store i8 1, ptr %8, align 1
  br label %22

22:                                               ; preds = %19, %3
  store i32 0, ptr %9, align 4
  br label %23

23:                                               ; preds = %97, %22
  %24 = load i32, ptr %9, align 4
  %25 = icmp slt i32 %24, 16
  br i1 %25, label %26, label %100

26:                                               ; preds = %23
  call void @llvm.lifetime.start.p0(i64 3, ptr %10) #10
  %27 = load ptr, ptr %7, align 8
  %28 = getelementptr inbounds i8, ptr %27, i64 0
  %29 = load i8, ptr %28, align 1
  %30 = sext i8 %29 to i32
  %31 = icmp eq i32 %30, 0
  br i1 %31, label %38, label %32

32:                                               ; preds = %26
  %33 = load ptr, ptr %7, align 8
  %34 = getelementptr inbounds i8, ptr %33, i64 1
  %35 = load i8, ptr %34, align 1
  %36 = sext i8 %35 to i32
  %37 = icmp eq i32 %36, 0
  br i1 %37, label %38, label %39

38:                                               ; preds = %32, %26
  store i32 5, ptr %11, align 4
  br label %94

39:                                               ; preds = %32
  %40 = getelementptr inbounds [3 x i8], ptr %10, i64 0, i64 0
  %41 = load ptr, ptr %7, align 8
  call void @llvm.memcpy.p0.p0.i64(ptr align 1 %40, ptr align 1 %41, i64 2, i1 false)
  %42 = call ptr @__ctype_b_loc() #11
  %43 = load ptr, ptr %42, align 8
  %44 = getelementptr inbounds [3 x i8], ptr %10, i64 0, i64 0
  %45 = load i8, ptr %44, align 1
  %46 = zext i8 %45 to i32
  %47 = sext i32 %46 to i64
  %48 = getelementptr inbounds i16, ptr %43, i64 %47
  %49 = load i16, ptr %48, align 2
  %50 = zext i16 %49 to i32
  %51 = and i32 %50, 4096
  %52 = icmp ne i32 %51, 0
  br i1 %52, label %53, label %65

53:                                               ; preds = %39
  %54 = call ptr @__ctype_b_loc() #11
  %55 = load ptr, ptr %54, align 8
  %56 = getelementptr inbounds [3 x i8], ptr %10, i64 0, i64 1
  %57 = load i8, ptr %56, align 1
  %58 = zext i8 %57 to i32
  %59 = sext i32 %58 to i64
  %60 = getelementptr inbounds i16, ptr %55, i64 %59
  %61 = load i16, ptr %60, align 2
  %62 = zext i16 %61 to i32
  %63 = and i32 %62, 4096
  %64 = icmp ne i32 %63, 0
  br i1 %64, label %66, label %65

65:                                               ; preds = %53, %39
  store i32 5, ptr %11, align 4
  br label %94

66:                                               ; preds = %53
  %67 = getelementptr inbounds [3 x i8], ptr %10, i64 0, i64 2
  store i8 0, ptr %67, align 1
  %68 = getelementptr inbounds [3 x i8], ptr %10, i64 0, i64 0
  %69 = call i64 @strtoul(ptr noundef %68, ptr noundef null, i32 noundef 16) #10
  %70 = trunc i64 %69 to i8
  %71 = load ptr, ptr %5, align 8
  %72 = getelementptr inbounds nuw %struct.pg_uuid_t, ptr %71, i32 0, i32 0
  %73 = load i32, ptr %9, align 4
  %74 = sext i32 %73 to i64
  %75 = getelementptr inbounds [16 x i8], ptr %72, i64 0, i64 %74
  store i8 %70, ptr %75, align 1
  %76 = load ptr, ptr %7, align 8
  %77 = getelementptr inbounds i8, ptr %76, i64 2
  store ptr %77, ptr %7, align 8
  %78 = load ptr, ptr %7, align 8
  %79 = getelementptr inbounds i8, ptr %78, i64 0
  %80 = load i8, ptr %79, align 1
  %81 = sext i8 %80 to i32
  %82 = icmp eq i32 %81, 45
  br i1 %82, label %83, label %93

83:                                               ; preds = %66
  %84 = load i32, ptr %9, align 4
  %85 = srem i32 %84, 2
  %86 = icmp eq i32 %85, 1
  br i1 %86, label %87, label %93

87:                                               ; preds = %83
  %88 = load i32, ptr %9, align 4
  %89 = icmp slt i32 %88, 15
  br i1 %89, label %90, label %93

90:                                               ; preds = %87
  %91 = load ptr, ptr %7, align 8
  %92 = getelementptr inbounds nuw i8, ptr %91, i32 1
  store ptr %92, ptr %7, align 8
  br label %93

93:                                               ; preds = %90, %87, %83, %66
  store i32 0, ptr %11, align 4
  br label %94

94:                                               ; preds = %65, %38, %93
  call void @llvm.lifetime.end.p0(i64 3, ptr %10) #10
  %95 = load i32, ptr %11, align 4
  switch i32 %95, label %135 [
    i32 0, label %96
    i32 5, label %119
  ]

96:                                               ; preds = %94
  br label %97

97:                                               ; preds = %96
  %98 = load i32, ptr %9, align 4
  %99 = add i32 %98, 1
  store i32 %99, ptr %9, align 4
  br label %23, !llvm.loop !4

100:                                              ; preds = %23
  %101 = load i8, ptr %8, align 1, !range !6, !noundef !7
  %102 = trunc i8 %101 to i1
  br i1 %102, label %103, label %112

103:                                              ; preds = %100
  %104 = load ptr, ptr %7, align 8
  %105 = load i8, ptr %104, align 1
  %106 = sext i8 %105 to i32
  %107 = icmp ne i32 %106, 125
  br i1 %107, label %108, label %109

108:                                              ; preds = %103
  br label %119

109:                                              ; preds = %103
  %110 = load ptr, ptr %7, align 8
  %111 = getelementptr inbounds nuw i8, ptr %110, i32 1
  store ptr %111, ptr %7, align 8
  br label %112

112:                                              ; preds = %109, %100
  %113 = load ptr, ptr %7, align 8
  %114 = load i8, ptr %113, align 1
  %115 = sext i8 %114 to i32
  %116 = icmp ne i32 %115, 0
  br i1 %116, label %117, label %118

117:                                              ; preds = %112
  br label %119

118:                                              ; preds = %112
  store i32 1, ptr %11, align 4
  br label %135

119:                                              ; preds = %94, %117, %108
  br label %120

120:                                              ; preds = %119
  br label %121

121:                                              ; preds = %120
  call void @llvm.lifetime.start.p0(i64 8, ptr %12) #10
  %122 = load ptr, ptr %6, align 8
  store ptr %122, ptr %12, align 8
  %123 = load ptr, ptr %12, align 8
  %124 = call zeroext i1 @errsave_start(ptr noundef %123, ptr noundef null)
  br i1 %124, label %125, label %130

125:                                              ; preds = %121
  %126 = call i32 @errcode(i32 noundef 33685634)
  %127 = load ptr, ptr %4, align 8
  %128 = call i32 (ptr, ...) @errmsg(ptr noundef @.str.2, ptr noundef @.str.3, ptr noundef %127)
  %129 = load ptr, ptr %12, align 8
  call void @errsave_finish(ptr noundef %129, ptr noundef @.str.1, i32 noundef 173, ptr noundef @__func__.string_to_uuid)
  br label %130

130:                                              ; preds = %125, %121
  call void @llvm.lifetime.end.p0(i64 8, ptr %12) #10
  br label %131

131:                                              ; preds = %130
  br label %132

132:                                              ; preds = %131
  store i32 1, ptr %11, align 4
  br label %135

133:                                              ; No predecessors!
  br label %134

134:                                              ; preds = %133
  store i32 0, ptr %11, align 4
  br label %135

135:                                              ; preds = %134, %132, %118, %94
  call void @llvm.lifetime.end.p0(i64 4, ptr %9) #10
  call void @llvm.lifetime.end.p0(i64 1, ptr %8) #10
  call void @llvm.lifetime.end.p0(i64 8, ptr %7) #10
  %136 = load i32, ptr %11, align 4
  switch i32 %136, label %138 [
    i32 0, label %137
    i32 1, label %137
  ]

137:                                              ; preds = %135, %135
  ret void

138:                                              ; preds = %135
  unreachable
}

; Function Attrs: inlinehint nounwind uwtable
define internal ptr @DatumGetCString(i64 noundef %0) #2 {
  %2 = alloca i64, align 8
  store i64 %0, ptr %2, align 8
  %3 = load i64, ptr %2, align 8
  %4 = call ptr @DatumGetPointer(i64 noundef %3)
  ret ptr %4
}

; Function Attrs: nounwind uwtable
define dso_local i64 @uuid_in(ptr noundef %0) #0 {
  %2 = alloca ptr, align 8
  %3 = alloca ptr, align 8
  %4 = alloca ptr, align 8
  store ptr %0, ptr %2, align 8
  call void @llvm.lifetime.start.p0(i64 8, ptr %3) #10
  %5 = load ptr, ptr %2, align 8
  %6 = getelementptr inbounds nuw %struct.FunctionCallInfoBaseData, ptr %5, i32 0, i32 6
  %7 = getelementptr inbounds [0 x %struct.NullableDatum], ptr %6, i64 0, i64 0
  %8 = getelementptr inbounds nuw %struct.NullableDatum, ptr %7, i32 0, i32 0
  %9 = load i64, ptr %8, align 8
  %10 = call ptr @DatumGetCString(i64 noundef %9)
  store ptr %10, ptr %3, align 8
  call void @llvm.lifetime.start.p0(i64 8, ptr %4) #10
  %11 = call ptr @palloc(i64 noundef 16)
  store ptr %11, ptr %4, align 8
  %12 = load ptr, ptr %3, align 8
  %13 = load ptr, ptr %4, align 8
  %14 = load ptr, ptr %2, align 8
  %15 = getelementptr inbounds nuw %struct.FunctionCallInfoBaseData, ptr %14, i32 0, i32 1
  %16 = load ptr, ptr %15, align 8
  call void @string_to_uuid(ptr noundef %12, ptr noundef %13, ptr noundef %16)
  %17 = load ptr, ptr %4, align 8
  %18 = call i64 @UUIDPGetDatum(ptr noundef %17)
  call void @llvm.lifetime.end.p0(i64 8, ptr %4) #10
  call void @llvm.lifetime.end.p0(i64 8, ptr %3) #10
  ret i64 %18
}